ccopy_reg
_reconstructor
p0
(cgoogle.oauth2.credentials
Credentials
p1
c__builtin__
object
p2
Ntp3
Rp4
(dp5
S'_quota_project_id'
p6
NsS'_token_uri'
p7
Vhttps://oauth2.googleapis.com/token
p8
sS'_client_secret'
p9
VBRktYjjeCkx7gEjjBhh9Q1Gj
p10
sS'_id_token'
p11
NsS'token'
p12
Vya29.a0Ae4lvC2NNI8XObzZJj1n6HGzmhw9bo4B63-gmCx41fTD_y5Y5c7m2M5fQk3mtKA6PvOXPfG9Rp2Uz_nHlPev6pEtKqlDcnqAZ6lr-0A4QDabr_NxBX9zQdefjs9WCsrVkV6vAkyeZpiGrMfPcvG6nyb_kwgOEuqrJtE
p13
sS'_refresh_token'
p14
V1//0gdYRPrbYPfCXCgYIARAAGBASNwF-L9IrldlK6I-SVU7EbBDoClA3NqBbysI65o4f0FBA2QPNS2iQ66PABs2qp7zzhypyHexkMP4
p15
sS'_scopes'
p16
(lp17
S'https://www.googleapis.com/auth/blogger'
p18
aS'https://www.googleapis.com/auth/drive.file'
p19
asS'_client_id'
p20
V1044751721266-cbvnnlkrfuuogp35but2hon3ia31ld33.apps.googleusercontent.com
p21
sS'expiry'
p22
cdatetime
datetime
p23
(S'\x07\xe4\x05\x05\x05\t\r\r\xf0Q'
p24
tp25
Rp26
sb.