ccopy_reg
_reconstructor
p0
(cgoogle.oauth2.credentials
Credentials
p1
c__builtin__
object
p2
Ntp3
Rp4
(dp5
S'_quota_project_id'
p6
NsS'_token_uri'
p7
Vhttps://oauth2.googleapis.com/token
p8
sS'_client_secret'
p9
VBRktYjjeCkx7gEjjBhh9Q1Gj
p10
sS'_id_token'
p11
NsS'token'
p12
Vya29.a0Ae4lvC0wM-dsEClz1p8C05Ywss3CgqthC5o9xqaUOJPRy2mvknRh2vUpWb1-XZ4BFlXra2RAqq6Tc8VofSEamGm4nqVosUZtVVwvRuFDaPb9sLTG5sby-vorwlGddlB7RFFWDMGhQ5gyGJMydjk7rdzWJglJSXjmB4g
p13
sS'_refresh_token'
p14
V1//0gdYRPrbYPfCXCgYIARAAGBASNwF-L9IrldlK6I-SVU7EbBDoClA3NqBbysI65o4f0FBA2QPNS2iQ66PABs2qp7zzhypyHexkMP4
p15
sS'_scopes'
p16
(lp17
S'https://www.googleapis.com/auth/blogger'
p18
aS'https://www.googleapis.com/auth/drive.file'
p19
asS'_client_id'
p20
V1044751721266-cbvnnlkrfuuogp35but2hon3ia31ld33.apps.googleusercontent.com
p21
sS'expiry'
p22
cdatetime
datetime
p23
(S'\x07\xe4\x05\x05\x08\t\x05\x05V\n'
p24
tp25
Rp26
sb.