ccopy_reg
_reconstructor
p0
(cgoogle.oauth2.credentials
Credentials
p1
c__builtin__
object
p2
Ntp3
Rp4
(dp5
S'_quota_project_id'
p6
NsS'_token_uri'
p7
Vhttps://oauth2.googleapis.com/token
p8
sS'_client_secret'
p9
VBRktYjjeCkx7gEjjBhh9Q1Gj
p10
sS'_id_token'
p11
NsS'token'
p12
Vya29.a0Ae4lvC2H2w5FSp8JA1v_qwpcPB286_yhKl4-9fvYzk4xdQIWw4yK3Lg_lSuf1f6hHY4m0XWZZgsfJX_w46idkgGVYAURk9woeep7-10l9hFAP7Bj06PdcA0G8zKnd5abnmRleDu4nMFms92WuS0o0dKyeZQchTuWvACI
p13
sS'_refresh_token'
p14
V1//0gI4rB3suRjT6CgYIARAAGBASNwF-L9Ir4oiRJKeqAFmrzZzEjK8ju2HUmkhJCwhgZ-MwZdkpxK3-eWzFH2HPl97IKaGNgX2Vk04
p15
sS'_scopes'
p16
(lp17
S'https://www.googleapis.com/auth/blogger'
p18
aS'https://www.googleapis.com/auth/drive.file'
p19
asS'_client_id'
p20
V1044751721266-cbvnnlkrfuuogp35but2hon3ia31ld33.apps.googleusercontent.com
p21
sS'expiry'
p22
cdatetime
datetime
p23
(S'\x07\xe4\x03\x1f\x0e!,\x01k\xf2'
p24
tp25
Rp26
sb.